; Function Attrs: nounwind uwtable
define dso_local void @logicalrep_write_update(ptr noundef %0, i32 noundef %1, ptr noundef readonly captures(none) %2, ptr noundef %3, ptr noundef %4, i1 noundef zeroext %5, ptr noundef %6, i32 noundef %7) local_unnamed_addr #0 {
  tail call void @enlargeStringInfo(ptr noundef %0, i32 noundef 1) #8
  tail call void @llvm.experimental.noalias.scope.decl(metadata !145)
  %9 = load ptr, ptr %0, align 8, !alias.scope !145
  %10 = getelementptr inbounds nuw i8, ptr %0, i64 8
  %11 = load i32, ptr %10, align 8, !alias.scope !145
  %12 = sext i32 %11 to i64
  %13 = getelementptr inbounds i8, ptr %9, i64 %12
  store i8 85, ptr %13, align 1, !noalias !145
  %14 = add i32 %11, 1
  store i32 %14, ptr %10, align 8, !alias.scope !145
  %.not = icmp eq i32 %1, 0
  br i1 %.not, label %22, label %15

15:                                               ; preds = %8
  tail call void @enlargeStringInfo(ptr noundef nonnull %0, i32 noundef 4) #8
  tail call void @llvm.experimental.noalias.scope.decl(metadata !148)
  %16 = tail call i32 @llvm.bswap.i32(i32 %1)
  %17 = load ptr, ptr %0, align 8, !alias.scope !148
  %18 = load i32, ptr %10, align 8, !alias.scope !148
  %19 = sext i32 %18 to i64
  %20 = getelementptr inbounds i8, ptr %17, i64 %19
  store i32 %16, ptr %20, align 1, !noalias !148
  %21 = add i32 %18, 4
  store i32 %21, ptr %10, align 8, !alias.scope !148
  br label %22

22:                                               ; preds = %15, %8
  %23 = getelementptr inbounds nuw i8, ptr %2, i64 72
  %24 = load i32, ptr %23, align 8
  tail call void @enlargeStringInfo(ptr noundef nonnull %0, i32 noundef 4) #8
  tail call void @llvm.experimental.noalias.scope.decl(metadata !151)
  %25 = tail call i32 @llvm.bswap.i32(i32 %24)
  %26 = load ptr, ptr %0, align 8, !alias.scope !151
  %27 = load i32, ptr %10, align 8, !alias.scope !151
  %28 = sext i32 %27 to i64
  %29 = getelementptr inbounds i8, ptr %26, i64 %28
  store i32 %25, ptr %29, align 1, !noalias !151
  %30 = add i32 %27, 4
  store i32 %30, ptr %10, align 8, !alias.scope !151
  %.not23 = icmp eq ptr %3, null
  br i1 %.not23, label %42, label %31

31:                                               ; preds = %22
  %32 = getelementptr inbounds nuw i8, ptr %2, i64 56
  %33 = load ptr, ptr %32, align 8
  %34 = getelementptr inbounds nuw i8, ptr %33, i64 126
  %35 = load i8, ptr %34, align 2
  %36 = icmp eq i8 %35, 102
  tail call void @enlargeStringInfo(ptr noundef nonnull %0, i32 noundef 1) #8
  %. = select i1 %36, i8 79, i8 75
  %37 = load ptr, ptr %0, align 8
  %38 = load i32, ptr %10, align 8
  %39 = sext i32 %38 to i64
  %40 = getelementptr inbounds i8, ptr %37, i64 %39
  store i8 %., ptr %40, align 1, !noalias !122
  %storemerge = add i32 %38, 1
  store i32 %storemerge, ptr %10, align 8
  %41 = getelementptr i8, ptr %2, i64 64
  %.val24 = load ptr, ptr %41, align 8
  tail call fastcc void @logicalrep_write_tuple(ptr noundef nonnull %0, ptr %.val24, ptr noundef nonnull %3, i1 noundef zeroext %5, ptr noundef %6, i32 noundef %7)
  br label %42

42:                                               ; preds = %31, %22
  tail call void @enlargeStringInfo(ptr noundef nonnull %0, i32 noundef 1) #8
  tail call void @llvm.experimental.noalias.scope.decl(metadata !154)
  %43 = load ptr, ptr %0, align 8, !alias.scope !154
  %44 = load i32, ptr %10, align 8, !alias.scope !154
  %45 = sext i32 %44 to i64
  %46 = getelementptr inbounds i8, ptr %43, i64 %45
  store i8 78, ptr %46, align 1, !noalias !154
  %47 = add i32 %44, 1
  store i32 %47, ptr %10, align 8, !alias.scope !154
  %48 = getelementptr i8, ptr %2, i64 64
  %.val = load ptr, ptr %48, align 8
  tail call fastcc void @logicalrep_write_tuple(ptr noundef nonnull %0, ptr %.val, ptr noundef %4, i1 noundef zeroext %5, ptr noundef %6, i32 noundef %7)
  ret void
}